target datalayout = "e-m:e-p270:32:32-p271:32:32-p272:64:64-i64:64-i128:128-f80:128-n8:16:32:64-S128"
target triple = "x86_64-pc-linux-gnu"

%struct.__ncnn_allocator_t = type { ptr, ptr, ptr }
%"class.ncnn::Mat" = type { ptr, ptr, i64, i32, ptr, i32, i32, i32, i32, i32, i64 }

; Function Attrs: mustprogress uwtable
define hidden ptr @ncnn_mat_from_pixels_roi(ptr noundef %0, i32 noundef %1, i32 noundef %2, i32 noundef %3, i32 noundef %4, i32 noundef %5, i32 noundef %6, i32 noundef %7, i32 noundef %8, ptr noundef %9) #1 personality ptr @__gxx_personality_v0 {
  %11 = alloca ptr, align 8
  %12 = alloca i32, align 4
  %13 = alloca i32, align 4
  %14 = alloca i32, align 4
  %15 = alloca i32, align 4
  %16 = alloca i32, align 4
  %17 = alloca i32, align 4
  %18 = alloca i32, align 4
  %19 = alloca i32, align 4
  %20 = alloca ptr, align 8
  %21 = alloca ptr, align 8
  %22 = alloca i32, align 4
  store ptr %0, ptr %11, align 8
  store i32 %1, ptr %12, align 4
  store i32 %2, ptr %13, align 4
  store i32 %3, ptr %14, align 4
  store i32 %4, ptr %15, align 4
  store i32 %5, ptr %16, align 4
  store i32 %6, ptr %17, align 4
  store i32 %7, ptr %18, align 4
  store i32 %8, ptr %19, align 4
  store ptr %9, ptr %20, align 8
  %23 = call noalias noundef nonnull ptr @_Znwm(i64 noundef 72) #13
  %24 = load ptr, ptr %11, align 8
  %25 = load i32, ptr %12, align 4
  %26 = load i32, ptr %13, align 4
  %27 = load i32, ptr %14, align 4
  %28 = load i32, ptr %15, align 4
  %29 = load i32, ptr %16, align 4
  %30 = load i32, ptr %17, align 4
  %31 = load i32, ptr %18, align 4
  %32 = load i32, ptr %19, align 4
  %33 = load ptr, ptr %20, align 8
  %34 = icmp ne ptr %33, null
  br i1 %34, label %35, label %39

35:                                               ; preds = %10
  %36 = load ptr, ptr %20, align 8
  %37 = getelementptr inbounds nuw %struct.__ncnn_allocator_t, ptr %36, i32 0, i32 0
  %38 = load ptr, ptr %37, align 8
  br label %40

39:                                               ; preds = %10
  br label %40

40:                                               ; preds = %39, %35
  %41 = phi ptr [ %38, %35 ], [ null, %39 ]
  invoke void @_ZN4ncnn3Mat15from_pixels_roiEPKhiiiiiiiiPNS_9AllocatorE(ptr dead_on_unwind writable sret(%"class.ncnn::Mat") align 8 %23, ptr noundef %24, i32 noundef %25, i32 noundef %26, i32 noundef %27, i32 noundef %28, i32 noundef %29, i32 noundef %30, i32 noundef %31, i32 noundef %32, ptr noundef %41)
          to label %42 unwind label %43

42:                                               ; preds = %40
  ret ptr %23

43:                                               ; preds = %40
  %44 = landingpad { ptr, i32 }
          cleanup
  %45 = extractvalue { ptr, i32 } %44, 0
  store ptr %45, ptr %21, align 8
  %46 = extractvalue { ptr, i32 } %44, 1
  store i32 %46, ptr %22, align 4
  call void @_ZdlPvm(ptr noundef %23, i64 noundef 72) #14
  br label %47

47:                                               ; preds = %43
  %48 = load ptr, ptr %21, align 8
  %49 = load i32, ptr %22, align 4
  %50 = insertvalue { ptr, i32 } poison, ptr %48, 0
  %51 = insertvalue { ptr, i32 } %50, i32 %49, 1
  resume { ptr, i32 } %51
}