; Function Attrs: mustprogress uwtable
define hidden noundef nonnull ptr @ncnn_mat_from_pixels_roi(ptr noundef %0, i32 noundef %1, i32 noundef %2, i32 noundef %3, i32 noundef %4, i32 noundef %5, i32 noundef %6, i32 noundef %7, i32 noundef %8, ptr noundef readonly %9) local_unnamed_addr #1 personality ptr @__gxx_personality_v0 {
  %11 = tail call noalias noundef nonnull dereferenceable(72) ptr @_Znwm(i64 noundef 72) #24
  %.not = icmp eq ptr %9, null
  br i1 %.not, label %14, label %12

12:                                               ; preds = %10
  %13 = load ptr, ptr %9, align 8
  br label %14

14:                                               ; preds = %10, %12
  %15 = phi ptr [ %13, %12 ], [ null, %10 ]
  invoke void @_ZN4ncnn3Mat15from_pixels_roiEPKhiiiiiiiiPNS_9AllocatorE(ptr dead_on_unwind nonnull writable sret(%"class.ncnn::Mat") align 8 %11, ptr noundef %0, i32 noundef %1, i32 noundef %2, i32 noundef %3, i32 noundef %4, i32 noundef %5, i32 noundef %6, i32 noundef %7, i32 noundef %8, ptr noundef %15)
          to label %16 unwind label %17

16:                                               ; preds = %14
  ret ptr %11

17:                                               ; preds = %14
  %18 = landingpad { ptr, i32 }
          cleanup
  tail call void @_ZdlPvm(ptr noundef nonnull %11, i64 noundef 72) #25
  resume { ptr, i32 } %18
}